; Function Attrs: mustprogress uwtable
define hidden noundef nonnull align 8 dereferenceable(8) ptr @_ZNK19psort_type_var_decl7displayERSo(ptr nocapture noundef nonnull readonly align 8 dereferenceable(56) %this, ptr noundef nonnull align 8 dereferenceable(8) %out) unnamed_addr #3 align 2 {
entry:
  %call = tail call noundef nonnull align 8 dereferenceable(8) ptr @_ZStlsISt11char_traitsIcEERSt13basic_ostreamIcT_ES5_PKc(ptr noundef nonnull align 8 dereferenceable(8) %out, ptr noundef nonnull @.str.6)
  %m_name = getelementptr inbounds i8, ptr %this, i64 24
  %agg.tmp.sroa.0.0.copyload = load ptr, ptr %m_name, align 8
  %0 = ptrtoint ptr %agg.tmp.sroa.0.0.copyload to i64
  %and.i = and i64 %0, 7
  %cmp.i = icmp eq i64 %and.i, 0
  br i1 %cmp.i, label %if.then.i, label %if.else5.i

if.then.i:                                        ; preds = %entry
  %tobool.not.i = icmp eq ptr %agg.tmp.sroa.0.0.copyload, null
  br i1 %tobool.not.i, label %if.else.i, label %if.then2.i

if.then2.i:                                       ; preds = %if.then.i
  %call.i = tail call noundef nonnull align 8 dereferenceable(8) ptr @_ZStlsISt11char_traitsIcEERSt13basic_ostreamIcT_ES5_PKc(ptr noundef nonnull align 8 dereferenceable(8) %call, ptr noundef nonnull %agg.tmp.sroa.0.0.copyload)
  br label %_ZlsRSo6symbol.exit

if.else.i:                                        ; preds = %if.then.i
  %call4.i = tail call noundef nonnull align 8 dereferenceable(8) ptr @_ZStlsISt11char_traitsIcEERSt13basic_ostreamIcT_ES5_PKc(ptr noundef nonnull align 8 dereferenceable(8) %call, ptr noundef nonnull @.str.22)
  br label %_ZlsRSo6symbol.exit

if.else5.i:                                       ; preds = %entry
  %call6.i = tail call noundef nonnull align 8 dereferenceable(8) ptr @_ZStlsISt11char_traitsIcEERSt13basic_ostreamIcT_ES5_PKc(ptr noundef nonnull align 8 dereferenceable(8) %call, ptr noundef nonnull @.str.23)
  %shr.i = lshr i64 %0, 3
  %conv.i = trunc i64 %shr.i to i32
  %call8.i = tail call noundef nonnull align 8 dereferenceable(8) ptr @_ZNSolsEi(ptr noundef nonnull align 8 dereferenceable(8) %call6.i, i32 noundef %conv.i)
  br label %_ZlsRSo6symbol.exit

_ZlsRSo6symbol.exit:                              ; preds = %if.then2.i, %if.else.i, %if.else5.i
  %call3 = tail call noundef nonnull align 8 dereferenceable(8) ptr @_ZStlsISt11char_traitsIcEERSt13basic_ostreamIcT_ES5_PKc(ptr noundef nonnull align 8 dereferenceable(8) %call, ptr noundef nonnull @.str.5)
  ret ptr %call3
}